target datalayout = "e-m:e-p270:32:32-p271:32:32-p272:64:64-i64:64-i128:128-f80:128-n8:16:32:64-S128"
target triple = "x86_64-pc-linux-gnu"

%struct.Gia_Man_t_ = type { ptr, ptr, i32, i32, i32, i32, ptr, ptr, i32, i32, i32, ptr, ptr, %struct.Vec_Int_t_, %struct.Vec_Int_t_, i32, i32, i32, %struct.Vec_Int_t_, ptr, ptr, ptr, i32, i32, i32, i32, ptr, ptr, ptr, ptr, ptr, i32, i32, ptr, i32, ptr, ptr, ptr, ptr, ptr, ptr, ptr, ptr, ptr, ptr, ptr, ptr, ptr, ptr, ptr, ptr, ptr, ptr, %struct.Vec_Int_t_, %struct.Vec_Int_t_, ptr, ptr, ptr, ptr, ptr, ptr, ptr, ptr, ptr, ptr, ptr, ptr, ptr, ptr, ptr, ptr, ptr, ptr, ptr, ptr, ptr, i32, float, float, ptr, ptr, i32, ptr, ptr, ptr, ptr, ptr, ptr, ptr, ptr, ptr, ptr, ptr, ptr, ptr, ptr, ptr, i64, i64, ptr, ptr, i32, i32, i32, i32, i32, i32, i32, i32, i32, i32, i32, i32, ptr, ptr, ptr, ptr, ptr, ptr, ptr, ptr, i32, i32, i32, ptr, i32, i32, ptr, ptr, ptr, ptr, ptr, ptr, i32, i32, ptr, %struct.Vec_Int_t_, %struct.Vec_Int_t_, %struct.Vec_Int_t_, ptr, ptr, ptr }
%struct.Vec_Int_t_ = type { i32, i32, ptr }
%struct.Gia_Obj_t_ = type <{ i64, i32 }>

; Function Attrs: nounwind uwtable
define internal void @Vec_IntFree(ptr noundef %0) #0 {
  %2 = alloca ptr, align 8
  store ptr %0, ptr %2, align 8
  %3 = load ptr, ptr %2, align 8
  %4 = getelementptr inbounds %struct.Vec_Int_t_, ptr %3, i32 0, i32 2
  %5 = load ptr, ptr %4, align 8
  %6 = icmp ne ptr %5, null
  br i1 %6, label %7, label %13

7:                                                ; preds = %1
  %8 = load ptr, ptr %2, align 8
  %9 = getelementptr inbounds %struct.Vec_Int_t_, ptr %8, i32 0, i32 2
  %10 = load ptr, ptr %9, align 8
  call void @free(ptr noundef %10) #11
  %11 = load ptr, ptr %2, align 8
  %12 = getelementptr inbounds %struct.Vec_Int_t_, ptr %11, i32 0, i32 2
  store ptr null, ptr %12, align 8
  br label %14

13:                                               ; preds = %1
  br label %14

14:                                               ; preds = %13, %7
  %15 = load ptr, ptr %2, align 8
  %16 = icmp ne ptr %15, null
  br i1 %16, label %17, label %19

17:                                               ; preds = %14
  %18 = load ptr, ptr %2, align 8
  call void @free(ptr noundef %18) #11
  store ptr null, ptr %2, align 8
  br label %20

19:                                               ; preds = %14
  br label %20

20:                                               ; preds = %19, %17
  ret void
}

; Function Attrs: nounwind uwtable
define internal i32 @Gia_ObjIsCo(ptr noundef %0) #0 {
  %2 = alloca ptr, align 8
  store ptr %0, ptr %2, align 8
  %3 = load ptr, ptr %2, align 8
  %4 = load i64, ptr %3, align 4
  %5 = lshr i64 %4, 31
  %6 = and i64 %5, 1
  %7 = trunc i64 %6 to i32
  %8 = icmp ne i32 %7, 0
  br i1 %8, label %9, label %15

9:                                                ; preds = %1
  %10 = load ptr, ptr %2, align 8
  %11 = load i64, ptr %10, align 4
  %12 = and i64 %11, 536870911
  %13 = trunc i64 %12 to i32
  %14 = icmp ne i32 %13, 536870911
  br label %15

15:                                               ; preds = %9, %1
  %16 = phi i1 [ false, %1 ], [ %14, %9 ]
  %17 = zext i1 %16 to i32
  ret i32 %17
}

; Function Attrs: nounwind uwtable
define internal ptr @Gia_ObjFanin1(ptr noundef %0) #0 {
  %2 = alloca ptr, align 8
  store ptr %0, ptr %2, align 8
  %3 = load ptr, ptr %2, align 8
  %4 = load ptr, ptr %2, align 8
  %5 = load i64, ptr %4, align 4
  %6 = lshr i64 %5, 32
  %7 = and i64 %6, 536870911
  %8 = trunc i64 %7 to i32
  %9 = sext i32 %8 to i64
  %10 = sub i64 0, %9
  %11 = getelementptr inbounds %struct.Gia_Obj_t_, ptr %3, i64 %10
  ret ptr %11
}

; Function Attrs: nounwind uwtable
define internal ptr @Gia_ObjFanin0(ptr noundef %0) #0 {
  %2 = alloca ptr, align 8
  store ptr %0, ptr %2, align 8
  %3 = load ptr, ptr %2, align 8
  %4 = load ptr, ptr %2, align 8
  %5 = load i64, ptr %4, align 4
  %6 = and i64 %5, 536870911
  %7 = trunc i64 %6 to i32
  %8 = sext i32 %7 to i64
  %9 = sub i64 0, %8
  %10 = getelementptr inbounds %struct.Gia_Obj_t_, ptr %3, i64 %9
  ret ptr %10
}

; Function Attrs: nounwind uwtable
define internal i32 @Gia_ObjIsAnd(ptr noundef %0) #0 {
  %2 = alloca ptr, align 8
  store ptr %0, ptr %2, align 8
  %3 = load ptr, ptr %2, align 8
  %4 = load i64, ptr %3, align 4
  %5 = lshr i64 %4, 31
  %6 = and i64 %5, 1
  %7 = trunc i64 %6 to i32
  %8 = icmp ne i32 %7, 0
  br i1 %8, label %15, label %9

9:                                                ; preds = %1
  %10 = load ptr, ptr %2, align 8
  %11 = load i64, ptr %10, align 4
  %12 = and i64 %11, 536870911
  %13 = trunc i64 %12 to i32
  %14 = icmp ne i32 %13, 536870911
  br label %15

15:                                               ; preds = %9, %1
  %16 = phi i1 [ false, %1 ], [ %14, %9 ]
  %17 = zext i1 %16 to i32
  ret i32 %17
}

; Function Attrs: nounwind uwtable
define internal ptr @Gia_ManObj(ptr noundef %0, i32 noundef %1) #0 {
  %3 = alloca ptr, align 8
  %4 = alloca i32, align 4
  store ptr %0, ptr %3, align 8
  store i32 %1, ptr %4, align 4
  %5 = load ptr, ptr %3, align 8
  %6 = getelementptr inbounds %struct.Gia_Man_t_, ptr %5, i32 0, i32 6
  %7 = load ptr, ptr %6, align 8
  %8 = load i32, ptr %4, align 4
  %9 = sext i32 %8 to i64
  %10 = getelementptr inbounds %struct.Gia_Obj_t_, ptr %7, i64 %9
  ret ptr %10
}

; Function Attrs: nounwind uwtable
define internal i32 @Vec_IntEntry(ptr noundef %0, i32 noundef %1) #0 {
  %3 = alloca ptr, align 8
  %4 = alloca i32, align 4
  store ptr %0, ptr %3, align 8
  store i32 %1, ptr %4, align 4
  %5 = load ptr, ptr %3, align 8
  %6 = getelementptr inbounds %struct.Vec_Int_t_, ptr %5, i32 0, i32 2
  %7 = load ptr, ptr %6, align 8
  %8 = load i32, ptr %4, align 4
  %9 = sext i32 %8 to i64
  %10 = getelementptr inbounds i32, ptr %7, i64 %9
  %11 = load i32, ptr %10, align 4
  ret i32 %11
}

; Function Attrs: nounwind uwtable
define internal i32 @Vec_IntSize(ptr noundef %0) #0 {
  %2 = alloca ptr, align 8
  store ptr %0, ptr %2, align 8
  %3 = load ptr, ptr %2, align 8
  %4 = getelementptr inbounds %struct.Vec_Int_t_, ptr %3, i32 0, i32 1
  %5 = load i32, ptr %4, align 4
  ret i32 %5
}

; Function Attrs: nounwind uwtable
define i32 @Gia_ManCrossCut(ptr noundef %0, i32 noundef %1) #0 {
  %3 = alloca ptr, align 8
  %4 = alloca i32, align 4
  %5 = alloca ptr, align 8
  %6 = alloca ptr, align 8
  %7 = alloca i32, align 4
  %8 = alloca i32, align 4
  %9 = alloca i32, align 4
  store ptr %0, ptr %3, align 8
  store i32 %1, ptr %4, align 4
  store i32 0, ptr %8, align 4
  store i32 0, ptr %9, align 4
  %10 = load ptr, ptr %3, align 8
  %11 = load i32, ptr %4, align 4
  %12 = call ptr @Gia_ManDfsForCrossCut(ptr noundef %10, i32 noundef %11)
  store ptr %12, ptr %5, align 8
  store i32 0, ptr %7, align 4
  br label %13

13:                                               ; preds = %83, %2
  %14 = load i32, ptr %7, align 4
  %15 = load ptr, ptr %5, align 8
  %16 = call i32 @Vec_IntSize(ptr noundef %15)
  %17 = icmp slt i32 %14, %16
  br i1 %17, label %18, label %25

18:                                               ; preds = %13
  %19 = load ptr, ptr %3, align 8
  %20 = load ptr, ptr %5, align 8
  %21 = load i32, ptr %7, align 4
  %22 = call i32 @Vec_IntEntry(ptr noundef %20, i32 noundef %21)
  %23 = call ptr @Gia_ManObj(ptr noundef %19, i32 noundef %22)
  store ptr %23, ptr %6, align 8
  %24 = icmp ne ptr %23, null
  br label %25

25:                                               ; preds = %18, %13
  %26 = phi i1 [ false, %13 ], [ %24, %18 ]
  br i1 %26, label %27, label %86

27:                                               ; preds = %25
  %28 = load ptr, ptr %6, align 8
  %29 = getelementptr inbounds %struct.Gia_Obj_t_, ptr %28, i32 0, i32 1
  %30 = load i32, ptr %29, align 4
  %31 = icmp ne i32 %30, 0
  br i1 %31, label %32, label %35

32:                                               ; preds = %27
  %33 = load i32, ptr %8, align 4
  %34 = add nsw i32 %33, 1
  store i32 %34, ptr %8, align 4
  br label %35

35:                                               ; preds = %32, %27
  %36 = load i32, ptr %9, align 4
  %37 = load i32, ptr %8, align 4
  %38 = icmp slt i32 %36, %37
  br i1 %38, label %39, label %41

39:                                               ; preds = %35
  %40 = load i32, ptr %8, align 4
  store i32 %40, ptr %9, align 4
  br label %41

41:                                               ; preds = %39, %35
  %42 = load ptr, ptr %6, align 8
  %43 = call i32 @Gia_ObjIsAnd(ptr noundef %42)
  %44 = icmp ne i32 %43, 0
  br i1 %44, label %45, label %66

45:                                               ; preds = %41
  %46 = load ptr, ptr %6, align 8
  %47 = call ptr @Gia_ObjFanin0(ptr noundef %46)
  %48 = getelementptr inbounds %struct.Gia_Obj_t_, ptr %47, i32 0, i32 1
  %49 = load i32, ptr %48, align 4
  %50 = add i32 %49, -1
  store i32 %50, ptr %48, align 4
  %51 = icmp eq i32 %50, 0
  br i1 %51, label %52, label %55

52:                                               ; preds = %45
  %53 = load i32, ptr %8, align 4
  %54 = add nsw i32 %53, -1
  store i32 %54, ptr %8, align 4
  br label %55

55:                                               ; preds = %52, %45
  %56 = load ptr, ptr %6, align 8
  %57 = call ptr @Gia_ObjFanin1(ptr noundef %56)
  %58 = getelementptr inbounds %struct.Gia_Obj_t_, ptr %57, i32 0, i32 1
  %59 = load i32, ptr %58, align 4
  %60 = add i32 %59, -1
  store i32 %60, ptr %58, align 4
  %61 = icmp eq i32 %60, 0
  br i1 %61, label %62, label %65

62:                                               ; preds = %55
  %63 = load i32, ptr %8, align 4
  %64 = add nsw i32 %63, -1
  store i32 %64, ptr %8, align 4
  br label %65

65:                                               ; preds = %62, %55
  br label %82

66:                                               ; preds = %41
  %67 = load ptr, ptr %6, align 8
  %68 = call i32 @Gia_ObjIsCo(ptr noundef %67)
  %69 = icmp ne i32 %68, 0
  br i1 %69, label %70, label %81

70:                                               ; preds = %66
  %71 = load ptr, ptr %6, align 8
  %72 = call ptr @Gia_ObjFanin0(ptr noundef %71)
  %73 = getelementptr inbounds %struct.Gia_Obj_t_, ptr %72, i32 0, i32 1
  %74 = load i32, ptr %73, align 4
  %75 = add i32 %74, -1
  store i32 %75, ptr %73, align 4
  %76 = icmp eq i32 %75, 0
  br i1 %76, label %77, label %80

77:                                               ; preds = %70
  %78 = load i32, ptr %8, align 4
  %79 = add nsw i32 %78, -1
  store i32 %79, ptr %8, align 4
  br label %80

80:                                               ; preds = %77, %70
  br label %81

81:                                               ; preds = %80, %66
  br label %82

82:                                               ; preds = %81, %65
  br label %83

83:                                               ; preds = %82
  %84 = load i32, ptr %7, align 4
  %85 = add nsw i32 %84, 1
  store i32 %85, ptr %7, align 4
  br label %13, !llvm.loop !42

86:                                               ; preds = %25
  %87 = load ptr, ptr %5, align 8
  call void @Vec_IntFree(ptr noundef %87)
  store i32 0, ptr %7, align 4
  br label %88

88:                                               ; preds = %102, %86
  %89 = load i32, ptr %7, align 4
  %90 = load ptr, ptr %3, align 8
  %91 = getelementptr inbounds %struct.Gia_Man_t_, ptr %90, i32 0, i32 4
  %92 = load i32, ptr %91, align 8
  %93 = icmp slt i32 %89, %92
  br i1 %93, label %94, label %99

94:                                               ; preds = %88
  %95 = load ptr, ptr %3, align 8
  %96 = load i32, ptr %7, align 4
  %97 = call ptr @Gia_ManObj(ptr noundef %95, i32 noundef %96)
  store ptr %97, ptr %6, align 8
  %98 = icmp ne ptr %97, null
  br label %99

99:                                               ; preds = %94, %88
  %100 = phi i1 [ false, %88 ], [ %98, %94 ]
  br i1 %100, label %101, label %105

101:                                              ; preds = %99
  br label %102

102:                                              ; preds = %101
  %103 = load i32, ptr %7, align 4
  %104 = add nsw i32 %103, 1
  store i32 %104, ptr %7, align 4
  br label %88, !llvm.loop !43

105:                                              ; preds = %99
  %106 = load i32, ptr %9, align 4
  ret i32 %106
}