; Function Attrs: nounwind uwtable
define range(i32 0, -2147483648) i32 @Gia_ManCrossCut(ptr noundef %0, i32 noundef %1) local_unnamed_addr #2 {
  %3 = tail call ptr @Gia_ManDfsForCrossCut(ptr noundef %0, i32 noundef %1)
  %4 = getelementptr i8, ptr %3, i64 8
  %5 = getelementptr i8, ptr %3, i64 4
  %.val4549 = load i32, ptr %5, align 4
  %6 = icmp sgt i32 %.val4549, 0
  br i1 %6, label %.lr.ph, label %.critedge

.lr.ph:                                           ; preds = %2
  %7 = getelementptr i8, ptr %0, i64 32
  br label %8

8:                                                ; preds = %.lr.ph, %36
  %indvars.iv = phi i64 [ 0, %.lr.ph ], [ %indvars.iv.next, %36 ]
  %.052 = phi i32 [ 0, %.lr.ph ], [ %.1, %36 ]
  %.02951 = phi i32 [ 0, %.lr.ph ], [ %.3, %36 ]
  %.val44 = load ptr, ptr %4, align 8
  %9 = getelementptr inbounds nuw i32, ptr %.val44, i64 %indvars.iv
  %10 = load i32, ptr %9, align 4
  %.val41 = load ptr, ptr %7, align 8
  %11 = sext i32 %10 to i64
  %12 = getelementptr inbounds %struct.Gia_Obj_t_, ptr %.val41, i64 %11
  %.not = icmp eq ptr %.val41, null
  br i1 %.not, label %.critedge, label %13

13:                                               ; preds = %8
  %14 = getelementptr inbounds nuw i8, ptr %12, i64 8
  %15 = load i32, ptr %14, align 4
  %.not35 = icmp ne i32 %15, 0
  %16 = zext i1 %.not35 to i32
  %spec.select = add nsw i32 %.02951, %16
  %.1 = tail call i32 @llvm.smax.i32(i32 %.052, i32 %spec.select)
  %.val42 = load i64, ptr %12, align 4
  %17 = and i64 %.val42, 2147483648
  %.not.i = icmp eq i64 %17, 0
  %18 = and i64 %.val42, 536870911
  %19 = icmp ne i64 %18, 536870911
  %narrow.i = and i1 %.not.i, %19
  br i1 %narrow.i, label %20, label %29

20:                                               ; preds = %13
  %21 = sub nsw i64 0, %18
  %22 = getelementptr inbounds %struct.Gia_Obj_t_, ptr %12, i64 %21, i32 1
  %23 = load i32, ptr %22, align 4
  %24 = add i32 %23, -1
  store i32 %24, ptr %22, align 4
  %25 = icmp eq i32 %24, 0
  %26 = sext i1 %25 to i32
  %spec.select38 = add nsw i32 %spec.select, %26
  %27 = lshr i64 %.val42, 32
  %28 = and i64 %27, 536870911
  br label %.sink.split

29:                                               ; preds = %13
  %.not.i46 = icmp ne i64 %17, 0
  %narrow.i47 = and i1 %.not.i46, %19
  br i1 %narrow.i47, label %.sink.split, label %36

.sink.split:                                      ; preds = %29, %20
  %.sink = phi i64 [ %28, %20 ], [ %18, %29 ]
  %spec.select38.sink = phi i32 [ %spec.select38, %20 ], [ %spec.select, %29 ]
  %30 = sub nsw i64 0, %.sink
  %31 = getelementptr inbounds %struct.Gia_Obj_t_, ptr %12, i64 %30, i32 1
  %32 = load i32, ptr %31, align 4
  %33 = add i32 %32, -1
  store i32 %33, ptr %31, align 4
  %34 = icmp eq i32 %33, 0
  %35 = sext i1 %34 to i32
  %spec.select40 = add nsw i32 %spec.select38.sink, %35
  br label %36

36:                                               ; preds = %.sink.split, %29
  %.3 = phi i32 [ %spec.select, %29 ], [ %spec.select40, %.sink.split ]
  %indvars.iv.next = add nuw nsw i64 %indvars.iv, 1
  %.val45 = load i32, ptr %5, align 4
  %37 = sext i32 %.val45 to i64
  %38 = icmp slt i64 %indvars.iv.next, %37
  br i1 %38, label %8, label %.critedge, !llvm.loop !40

.critedge:                                        ; preds = %8, %36, %2
  %.0.lcssa = phi i32 [ 0, %2 ], [ %.1, %36 ], [ %.052, %8 ]
  %39 = load ptr, ptr %4, align 8
  %.not.i48 = icmp eq ptr %39, null
  br i1 %.not.i48, label %Vec_IntFree.exit, label %40

40:                                               ; preds = %.critedge
  tail call void @free(ptr noundef nonnull %39) #36
  br label %Vec_IntFree.exit

Vec_IntFree.exit:                                 ; preds = %.critedge, %40
  tail call void @free(ptr noundef nonnull %3) #36
  ret i32 %.0.lcssa
}